; Function Attrs: mustprogress uwtable
define internal noundef zeroext i1 @"_ZNSt17_Function_handlerIFbRKSt6vectorI18cmListFileArgumentSaIS1_EER17cmExecutionStatusEZN7cmState17AddBuiltinCommandERKNSt7__cxx1112basic_stringIcSt11char_traitsIcESaIcEEEPFbRKS0_ISF_SaISF_EES7_EE3$_0E9_M_invokeERKSt9_Any_dataS5_S7_"(ptr noundef nonnull readonly align 8 captures(none) dereferenceable(16) %0, ptr noundef nonnull align 8 dereferenceable(24) %1, ptr noundef nonnull align 8 dereferenceable(80) %2) #5 align 2 personality ptr @__gxx_personality_v0 {
  %4 = alloca %"class.std::vector", align 8
  %.val = load ptr, ptr %0, align 8, !tbaa !476
  %5 = load ptr, ptr %2, align 8, !tbaa !478
  call void @llvm.lifetime.start.p0(i64 24, ptr nonnull %4) #32
  call void @llvm.memset.p0.i64(ptr noundef nonnull align 8 dereferenceable(24) %4, i8 0, i64 24, i1 false)
  %6 = invoke noundef zeroext i1 @_ZNK10cmMakefile15ExpandArgumentsERKSt6vectorI18cmListFileArgumentSaIS1_EERS0_INSt7__cxx1112basic_stringIcSt11char_traitsIcESaIcEEESaISB_EE(ptr noundef nonnull align 8 dereferenceable(2880) %5, ptr noundef nonnull align 8 dereferenceable(24) %1, ptr noundef nonnull align 8 dereferenceable(24) %4)
          to label %7 unwind label %8

7:                                                ; preds = %3
  br i1 %6, label %10, label %12

8:                                                ; preds = %10, %3
  %9 = landingpad { ptr, i32 }
          cleanup
  call void @_ZNSt6vectorINSt7__cxx1112basic_stringIcSt11char_traitsIcESaIcEEESaIS5_EED2Ev(ptr noundef nonnull align 8 dereferenceable(24) %4) #32
  call void @llvm.lifetime.end.p0(i64 24, ptr nonnull %4) #32
  resume { ptr, i32 } %9

10:                                               ; preds = %7
  %11 = invoke noundef zeroext i1 %.val(ptr noundef nonnull align 8 dereferenceable(24) %4, ptr noundef nonnull align 8 dereferenceable(80) %2)
          to label %12 unwind label %8

12:                                               ; preds = %10, %7
  %.0.i.i.i.i = phi i1 [ true, %7 ], [ %11, %10 ]
  %13 = load ptr, ptr %4, align 8, !tbaa !140
  %14 = getelementptr inbounds nuw i8, ptr %4, i64 8
  %15 = load ptr, ptr %14, align 8, !tbaa !141
  %.not4.i.i.i.i.i.i.i.i = icmp eq ptr %13, %15
  br i1 %.not4.i.i.i.i.i.i.i.i, label %_ZSt8_DestroyIPNSt7__cxx1112basic_stringIcSt11char_traitsIcESaIcEEES5_EvT_S7_RSaIT0_E.exit.i.i.i.i.i, label %.lr.ph.i.i.i.i.i.i.i.i

.lr.ph.i.i.i.i.i.i.i.i:                           ; preds = %12, %_ZSt8_DestroyINSt7__cxx1112basic_stringIcSt11char_traitsIcESaIcEEEEvPT_.exit.i.i.i.i.i.i.i.i
  %.05.i.i.i.i.i.i.i.i = phi ptr [ %24, %_ZSt8_DestroyINSt7__cxx1112basic_stringIcSt11char_traitsIcESaIcEEEEvPT_.exit.i.i.i.i.i.i.i.i ], [ %13, %12 ]
  %16 = load ptr, ptr %.05.i.i.i.i.i.i.i.i, align 8, !tbaa !125
  %17 = getelementptr inbounds nuw i8, ptr %.05.i.i.i.i.i.i.i.i, i64 16
  %18 = icmp eq ptr %16, %17
  br i1 %18, label %_ZNKSt7__cxx1112basic_stringIcSt11char_traitsIcESaIcEE11_M_is_localEv.exit.thread.i.i.i.i.i.i.i.i.i.i.i, label %_ZNKSt7__cxx1112basic_stringIcSt11char_traitsIcESaIcEE11_M_is_localEv.exit.i.i.i.i.i.i.i.i.i.i.i

_ZNKSt7__cxx1112basic_stringIcSt11char_traitsIcESaIcEE11_M_is_localEv.exit.thread.i.i.i.i.i.i.i.i.i.i.i: ; preds = %.lr.ph.i.i.i.i.i.i.i.i
  %19 = getelementptr inbounds nuw i8, ptr %.05.i.i.i.i.i.i.i.i, i64 8
  %20 = load i64, ptr %19, align 8, !tbaa !34
  %21 = icmp ult i64 %20, 16
  call void @llvm.assume(i1 %21)
  br label %_ZSt8_DestroyINSt7__cxx1112basic_stringIcSt11char_traitsIcESaIcEEEEvPT_.exit.i.i.i.i.i.i.i.i

_ZNKSt7__cxx1112basic_stringIcSt11char_traitsIcESaIcEE11_M_is_localEv.exit.i.i.i.i.i.i.i.i.i.i.i: ; preds = %.lr.ph.i.i.i.i.i.i.i.i
  %22 = load i64, ptr %17, align 8, !tbaa !36
  %23 = add i64 %22, 1
  call void @_ZdlPvm(ptr noundef %16, i64 noundef %23) #33
  br label %_ZSt8_DestroyINSt7__cxx1112basic_stringIcSt11char_traitsIcESaIcEEEEvPT_.exit.i.i.i.i.i.i.i.i

_ZSt8_DestroyINSt7__cxx1112basic_stringIcSt11char_traitsIcESaIcEEEEvPT_.exit.i.i.i.i.i.i.i.i: ; preds = %_ZNKSt7__cxx1112basic_stringIcSt11char_traitsIcESaIcEE11_M_is_localEv.exit.i.i.i.i.i.i.i.i.i.i.i, %_ZNKSt7__cxx1112basic_stringIcSt11char_traitsIcESaIcEE11_M_is_localEv.exit.thread.i.i.i.i.i.i.i.i.i.i.i
  %24 = getelementptr inbounds nuw i8, ptr %.05.i.i.i.i.i.i.i.i, i64 32
  %.not.i.i.i.i.i.i.i.i = icmp eq ptr %24, %15
  br i1 %.not.i.i.i.i.i.i.i.i, label %_ZSt8_DestroyIPNSt7__cxx1112basic_stringIcSt11char_traitsIcESaIcEEES5_EvT_S7_RSaIT0_E.exitthread-pre-split.i.i.i.i.i, label %.lr.ph.i.i.i.i.i.i.i.i, !llvm.loop !142

_ZSt8_DestroyIPNSt7__cxx1112basic_stringIcSt11char_traitsIcESaIcEEES5_EvT_S7_RSaIT0_E.exitthread-pre-split.i.i.i.i.i: ; preds = %_ZSt8_DestroyINSt7__cxx1112basic_stringIcSt11char_traitsIcESaIcEEEEvPT_.exit.i.i.i.i.i.i.i.i
  %.pr.i.i.i.i.i = load ptr, ptr %4, align 8, !tbaa !140
  br label %_ZSt8_DestroyIPNSt7__cxx1112basic_stringIcSt11char_traitsIcESaIcEEES5_EvT_S7_RSaIT0_E.exit.i.i.i.i.i

_ZSt8_DestroyIPNSt7__cxx1112basic_stringIcSt11char_traitsIcESaIcEEES5_EvT_S7_RSaIT0_E.exit.i.i.i.i.i: ; preds = %_ZSt8_DestroyIPNSt7__cxx1112basic_stringIcSt11char_traitsIcESaIcEEES5_EvT_S7_RSaIT0_E.exitthread-pre-split.i.i.i.i.i, %12
  %25 = phi ptr [ %.pr.i.i.i.i.i, %_ZSt8_DestroyIPNSt7__cxx1112basic_stringIcSt11char_traitsIcESaIcEEES5_EvT_S7_RSaIT0_E.exitthread-pre-split.i.i.i.i.i ], [ %13, %12 ]
  %.not.i.i.i.i.i.i.i = icmp eq ptr %25, null
  br i1 %.not.i.i.i.i.i.i.i, label %"_ZSt10__invoke_rIbRZN7cmState17AddBuiltinCommandERKNSt7__cxx1112basic_stringIcSt11char_traitsIcESaIcEEEPFbRKSt6vectorIS6_SaIS6_EER17cmExecutionStatusEE3$_0JRKS9_I18cmListFileArgumentSaISK_EESF_EENSt9enable_ifIX16is_invocable_r_vIT_T0_DpT1_EESQ_E4typeEOSR_DpOSS_.exit", label %26

26:                                               ; preds = %_ZSt8_DestroyIPNSt7__cxx1112basic_stringIcSt11char_traitsIcESaIcEEES5_EvT_S7_RSaIT0_E.exit.i.i.i.i.i
  %27 = getelementptr inbounds nuw i8, ptr %4, i64 16
  %28 = load ptr, ptr %27, align 8, !tbaa !144
  %29 = ptrtoint ptr %28 to i64
  %30 = ptrtoint ptr %25 to i64
  %31 = sub i64 %29, %30
  call void @_ZdlPvm(ptr noundef nonnull %25, i64 noundef %31) #33
  br label %"_ZSt10__invoke_rIbRZN7cmState17AddBuiltinCommandERKNSt7__cxx1112basic_stringIcSt11char_traitsIcESaIcEEEPFbRKSt6vectorIS6_SaIS6_EER17cmExecutionStatusEE3$_0JRKS9_I18cmListFileArgumentSaISK_EESF_EENSt9enable_ifIX16is_invocable_r_vIT_T0_DpT1_EESQ_E4typeEOSR_DpOSS_.exit"

"_ZSt10__invoke_rIbRZN7cmState17AddBuiltinCommandERKNSt7__cxx1112basic_stringIcSt11char_traitsIcESaIcEEEPFbRKSt6vectorIS6_SaIS6_EER17cmExecutionStatusEE3$_0JRKS9_I18cmListFileArgumentSaISK_EESF_EENSt9enable_ifIX16is_invocable_r_vIT_T0_DpT1_EESQ_E4typeEOSR_DpOSS_.exit": ; preds = %_ZSt8_DestroyIPNSt7__cxx1112basic_stringIcSt11char_traitsIcESaIcEEES5_EvT_S7_RSaIT0_E.exit.i.i.i.i.i, %26
  call void @llvm.lifetime.end.p0(i64 24, ptr nonnull %4) #32
  ret i1 %.0.i.i.i.i
}